target datalayout = "e-m:e-p270:32:32-p271:32:32-p272:64:64-i64:64-i128:128-f80:128-n8:16:32:64-S128"
target triple = "x86_64-pc-linux-gnu"

%struct.maybe_retry_data_st = type { i32 }

; Function Attrs: nounwind uwtable
define internal i64 @maybe_retry_ctrl(ptr noundef %0, i32 noundef %1, i64 noundef %2, ptr noundef %3) #0 {
  %5 = alloca i64, align 8
  %6 = alloca ptr, align 8
  %7 = alloca i32, align 4
  %8 = alloca i64, align 8
  %9 = alloca ptr, align 8
  %10 = alloca ptr, align 8
  %11 = alloca i32, align 4
  store ptr %0, ptr %6, align 8, !tbaa !9
  store i32 %1, ptr %7, align 4, !tbaa !13
  store i64 %2, ptr %8, align 8, !tbaa !15
  store ptr %3, ptr %9, align 8, !tbaa !17
  call void @llvm.lifetime.start.p0(i64 8, ptr %10) #10
  %12 = load ptr, ptr %6, align 8, !tbaa !9
  %13 = call ptr @BIO_get_data(ptr noundef %12)
  store ptr %13, ptr %10, align 8, !tbaa !51
  %14 = load ptr, ptr %10, align 8, !tbaa !51
  %15 = icmp eq ptr %14, null
  br i1 %15, label %16, label %17

16:                                               ; preds = %4
  store i64 0, ptr %5, align 8
  store i32 1, ptr %11, align 4
  br label %43

17:                                               ; preds = %4
  %18 = load i32, ptr %7, align 4, !tbaa !13
  switch i32 %18, label %36 [
    i32 32768, label %19
    i32 11, label %24
  ]

19:                                               ; preds = %17
  %20 = load i64, ptr %8, align 8, !tbaa !15
  %21 = trunc i64 %20 to i32
  %22 = load ptr, ptr %10, align 8, !tbaa !51
  %23 = getelementptr inbounds nuw %struct.maybe_retry_data_st, ptr %22, i32 0, i32 0
  store i32 %21, ptr %23, align 4, !tbaa !53
  store i64 1, ptr %5, align 8
  store i32 1, ptr %11, align 4
  br label %43

24:                                               ; preds = %17
  %25 = load ptr, ptr %10, align 8, !tbaa !51
  %26 = getelementptr inbounds nuw %struct.maybe_retry_data_st, ptr %25, i32 0, i32 0
  %27 = load i32, ptr %26, align 4, !tbaa !53
  %28 = icmp eq i32 %27, 0
  br i1 %28, label %29, label %31

29:                                               ; preds = %24
  %30 = load ptr, ptr %6, align 8, !tbaa !9
  call void @BIO_set_flags(ptr noundef %30, i32 noundef 10)
  store i64 -1, ptr %5, align 8
  store i32 1, ptr %11, align 4
  br label %43

31:                                               ; preds = %24
  %32 = load ptr, ptr %10, align 8, !tbaa !51
  %33 = getelementptr inbounds nuw %struct.maybe_retry_data_st, ptr %32, i32 0, i32 0
  %34 = load i32, ptr %33, align 4, !tbaa !53
  %35 = add i32 %34, -1
  store i32 %35, ptr %33, align 4, !tbaa !53
  br label %36

36:                                               ; preds = %17, %31
  %37 = load ptr, ptr %6, align 8, !tbaa !9
  %38 = call ptr @BIO_next(ptr noundef %37)
  %39 = load i32, ptr %7, align 4, !tbaa !13
  %40 = load i64, ptr %8, align 8, !tbaa !15
  %41 = load ptr, ptr %9, align 8, !tbaa !17
  %42 = call i64 @BIO_ctrl(ptr noundef %38, i32 noundef %39, i64 noundef %40, ptr noundef %41)
  store i64 %42, ptr %5, align 8
  store i32 1, ptr %11, align 4
  br label %43

43:                                               ; preds = %36, %29, %19, %16
  call void @llvm.lifetime.end.p0(i64 8, ptr %10) #10
  %44 = load i64, ptr %5, align 8
  ret i64 %44
}