; Function Attrs: nounwind uwtable
define internal i64 @maybe_retry_ctrl(ptr noundef %0, i32 noundef %1, i64 noundef %2, ptr noundef %3) #0 {
  %5 = tail call ptr @BIO_get_data(ptr noundef %0) #14
  %6 = icmp eq ptr %5, null
  br i1 %6, label %19, label %7

7:                                                ; preds = %4
  switch i32 %1, label %16 [
    i32 32768, label %8
    i32 11, label %10
  ]

8:                                                ; preds = %7
  %9 = trunc i64 %2 to i32
  store i32 %9, ptr %5, align 4, !tbaa !46
  br label %19

10:                                               ; preds = %7
  %11 = load i32, ptr %5, align 4, !tbaa !46
  %12 = icmp eq i32 %11, 0
  br i1 %12, label %13, label %14

13:                                               ; preds = %10
  tail call void @BIO_set_flags(ptr noundef %0, i32 noundef 10) #14
  br label %19

14:                                               ; preds = %10
  %15 = add i32 %11, -1
  store i32 %15, ptr %5, align 4, !tbaa !46
  br label %16

16:                                               ; preds = %14, %7
  %17 = tail call ptr @BIO_next(ptr noundef %0) #14
  %18 = tail call i64 @BIO_ctrl(ptr noundef %17, i32 noundef %1, i64 noundef %2, ptr noundef %3) #14
  br label %19

19:                                               ; preds = %4, %16, %13, %8
  %.0 = phi i64 [ %18, %16 ], [ -1, %13 ], [ 1, %8 ], [ 0, %4 ]
  ret i64 %.0
}